; ModuleID = 'source-C-CXX/11/1205.cpp'
source_filename = "source-C-CXX/11/1205.cpp"
target datalayout = "e-m:e-p270:32:32-p271:32:32-p272:64:64-i64:64-f80:128-n8:16:32:64-S128"
target triple = "x86_64-pc-linux-gnu"

%"class.std::ios_base::Init" = type { i8 }
%"class.std::basic_istream" = type { i32 (...)**, i64, %"class.std::basic_ios" }
%"class.std::basic_ios" = type { %"class.std::ios_base", %"class.std::basic_ostream"*, i8, i8, %"class.std::basic_streambuf"*, %"class.std::ctype"*, %"class.std::num_put"*, %"class.std::num_get"* }
%"class.std::ios_base" = type { i32 (...)**, i64, i64, i32, i32, i32, %"struct.std::ios_base::_Callback_list"*, %"struct.std::ios_base::_Words", [8 x %"struct.std::ios_base::_Words"], i32, %"struct.std::ios_base::_Words"*, %"class.std::locale" }
%"struct.std::ios_base::_Callback_list" = type { %"struct.std::ios_base::_Callback_list"*, void (i32, %"class.std::ios_base"*, i32)*, i32, i32 }
%"struct.std::ios_base::_Words" = type { i8*, i64 }
%"class.std::locale" = type { %"class.std::locale::_Impl"* }
%"class.std::locale::_Impl" = type { i32, %"class.std::locale::facet"**, i64, %"class.std::locale::facet"**, i8** }
%"class.std::locale::facet" = type <{ i32 (...)**, i32, [4 x i8] }>
%"class.std::basic_ostream" = type { i32 (...)**, %"class.std::basic_ios" }
%"class.std::basic_streambuf" = type { i32 (...)**, i8*, i8*, i8*, i8*, i8*, i8*, %"class.std::locale" }
%"class.std::ctype" = type <{ %"class.std::locale::facet.base", [4 x i8], %struct.__locale_struct*, i8, [7 x i8], i32*, i32*, i16*, i8, [256 x i8], [256 x i8], i8, [6 x i8] }>
%"class.std::locale::facet.base" = type <{ i32 (...)**, i32 }>
%struct.__locale_struct = type { [13 x %struct.__locale_data*], i16*, i32*, i32*, [13 x i8*] }
%struct.__locale_data = type opaque
%"class.std::num_put" = type { %"class.std::locale::facet.base", [4 x i8] }
%"class.std::num_get" = type { %"class.std::locale::facet.base", [4 x i8] }

@_ZStL8__ioinit = internal global %"class.std::ios_base::Init" zeroinitializer, align 1
@__dso_handle = external hidden global i8
@_ZSt3cin = external global %"class.std::basic_istream", align 8
@_ZSt4cout = external global %"class.std::basic_ostream", align 8
@llvm.global_ctors = appending global [1 x { i32, void ()*, i8* }] [{ i32, void ()*, i8* } { i32 65535, void ()* @_GLOBAL__sub_I_1205.cpp, i8* null }]

declare void @_ZNSt8ios_base4InitC1Ev(%"class.std::ios_base::Init"* nonnull align 1 dereferenceable(1)) unnamed_addr #0

; Function Attrs: nounwind
declare void @_ZNSt8ios_base4InitD1Ev(%"class.std::ios_base::Init"* nonnull align 1 dereferenceable(1)) unnamed_addr #1

; Function Attrs: nofree nounwind
declare i32 @__cxa_atexit(void (i8*)*, i8*, i8*) local_unnamed_addr #2

; Function Attrs: mustprogress norecurse sspstrong uwtable
define dso_local i32 @main() local_unnamed_addr #3 {
  %1 = alloca [15 x i32], align 16
  %2 = bitcast [15 x i32]* %1 to i8*
  call void @llvm.lifetime.start.p0i8(i64 60, i8* nonnull %2) #7
  br label %3

3:                                                ; preds = %10, %0
  %4 = phi i64 [ 0, %0 ], [ %11, %10 ]
  %5 = getelementptr inbounds [15 x i32], [15 x i32]* %1, i64 0, i64 %4
  %6 = call nonnull align 8 dereferenceable(16) %"class.std::basic_istream"* @_ZNSirsERi(%"class.std::basic_istream"* nonnull align 8 dereferenceable(16) @_ZSt3cin, i32* nonnull align 4 dereferenceable(4) %5)
  %7 = load i32, i32* %5, align 4, !tbaa !5
  %8 = icmp slt i32 %7, 1
  %9 = add nuw i64 %4, 1
  br i1 %8, label %12, label %10

10:                                               ; preds = %3, %90
  %11 = phi i64 [ %9, %3 ], [ 0, %90 ]
  br label %3, !llvm.loop !9

12:                                               ; preds = %3
  %13 = icmp eq i32 %7, -1
  br i1 %13, label %94, label %14

14:                                               ; preds = %12
  %15 = trunc i64 %4 to i32
  %16 = icmp eq i32 %15, 0
  br i1 %16, label %62, label %17

17:                                               ; preds = %14
  %18 = and i64 %4, 4294967295
  %19 = and i64 %4, 1
  %20 = icmp eq i64 %18, 1
  %21 = sub nsw i64 %18, %19
  %22 = icmp eq i64 %19, 0
  br label %23

23:                                               ; preds = %17, %58
  %24 = phi i64 [ 0, %17 ], [ %60, %58 ]
  %25 = phi i32 [ 0, %17 ], [ %59, %58 ]
  %26 = getelementptr inbounds [15 x i32], [15 x i32]* %1, i64 0, i64 %24
  br i1 %20, label %44, label %27

27:                                               ; preds = %23, %103
  %28 = phi i64 [ %105, %103 ], [ 0, %23 ]
  %29 = phi i32 [ %104, %103 ], [ %25, %23 ]
  %30 = phi i64 [ %106, %103 ], [ %21, %23 ]
  %31 = icmp eq i64 %28, %24
  br i1 %31, label %40, label %32

32:                                               ; preds = %27
  %33 = getelementptr inbounds [15 x i32], [15 x i32]* %1, i64 0, i64 %28
  %34 = load i32, i32* %33, align 8, !tbaa !5
  %35 = load i32, i32* %26, align 4, !tbaa !5
  %36 = shl nsw i32 %35, 1
  %37 = icmp eq i32 %34, %36
  %38 = zext i1 %37 to i32
  %39 = add nsw i32 %29, %38
  br label %40

40:                                               ; preds = %32, %27
  %41 = phi i32 [ %29, %27 ], [ %39, %32 ]
  %42 = or i64 %28, 1
  %43 = icmp eq i64 %42, %24
  br i1 %43, label %103, label %95

44:                                               ; preds = %103, %23
  %45 = phi i32 [ undef, %23 ], [ %104, %103 ]
  %46 = phi i64 [ 0, %23 ], [ %105, %103 ]
  %47 = phi i32 [ %25, %23 ], [ %104, %103 ]
  br i1 %22, label %58, label %48

48:                                               ; preds = %44
  %49 = icmp eq i64 %46, %24
  br i1 %49, label %58, label %50

50:                                               ; preds = %48
  %51 = getelementptr inbounds [15 x i32], [15 x i32]* %1, i64 0, i64 %46
  %52 = load i32, i32* %51, align 4, !tbaa !5
  %53 = load i32, i32* %26, align 4, !tbaa !5
  %54 = shl nsw i32 %53, 1
  %55 = icmp eq i32 %52, %54
  %56 = zext i1 %55 to i32
  %57 = add nsw i32 %47, %56
  br label %58

58:                                               ; preds = %50, %48, %44
  %59 = phi i32 [ %45, %44 ], [ %47, %48 ], [ %57, %50 ]
  %60 = add nuw nsw i64 %24, 1
  %61 = icmp eq i64 %60, %18
  br i1 %61, label %62, label %23, !llvm.loop !11

62:                                               ; preds = %58, %14
  %63 = phi i32 [ 0, %14 ], [ %59, %58 ]
  %64 = call nonnull align 8 dereferenceable(8) %"class.std::basic_ostream"* @_ZNSolsEi(%"class.std::basic_ostream"* nonnull align 8 dereferenceable(8) @_ZSt4cout, i32 %63)
  %65 = bitcast %"class.std::basic_ostream"* %64 to i8**
  %66 = load i8*, i8** %65, align 8, !tbaa !12
  %67 = getelementptr i8, i8* %66, i64 -24
  %68 = bitcast i8* %67 to i64*
  %69 = load i64, i64* %68, align 8
  %70 = bitcast %"class.std::basic_ostream"* %64 to i8*
  %71 = add nsw i64 %69, 240
  %72 = getelementptr inbounds i8, i8* %70, i64 %71
  %73 = bitcast i8* %72 to %"class.std::ctype"**
  %74 = load %"class.std::ctype"*, %"class.std::ctype"** %73, align 8, !tbaa !14
  %75 = icmp eq %"class.std::ctype"* %74, null
  br i1 %75, label %76, label %77

76:                                               ; preds = %62
  call void @_ZSt16__throw_bad_castv() #8
  unreachable

77:                                               ; preds = %62
  %78 = getelementptr inbounds %"class.std::ctype", %"class.std::ctype"* %74, i64 0, i32 8
  %79 = load i8, i8* %78, align 8, !tbaa !18
  %80 = icmp eq i8 %79, 0
  br i1 %80, label %84, label %81

81:                                               ; preds = %77
  %82 = getelementptr inbounds %"class.std::ctype", %"class.std::ctype"* %74, i64 0, i32 9, i64 10
  %83 = load i8, i8* %82, align 1, !tbaa !20
  br label %90

84:                                               ; preds = %77
  call void @_ZNKSt5ctypeIcE13_M_widen_initEv(%"class.std::ctype"* nonnull align 8 dereferenceable(570) %74)
  %85 = bitcast %"class.std::ctype"* %74 to i8 (%"class.std::ctype"*, i8)***
  %86 = load i8 (%"class.std::ctype"*, i8)**, i8 (%"class.std::ctype"*, i8)*** %85, align 8, !tbaa !12
  %87 = getelementptr inbounds i8 (%"class.std::ctype"*, i8)*, i8 (%"class.std::ctype"*, i8)** %86, i64 6
  %88 = load i8 (%"class.std::ctype"*, i8)*, i8 (%"class.std::ctype"*, i8)** %87, align 8
  %89 = call signext i8 %88(%"class.std::ctype"* nonnull align 8 dereferenceable(570) %74, i8 signext 10)
  br label %90

90:                                               ; preds = %81, %84
  %91 = phi i8 [ %83, %81 ], [ %89, %84 ]
  %92 = call nonnull align 8 dereferenceable(8) %"class.std::basic_ostream"* @_ZNSo3putEc(%"class.std::basic_ostream"* nonnull align 8 dereferenceable(8) %64, i8 signext %91)
  %93 = call nonnull align 8 dereferenceable(8) %"class.std::basic_ostream"* @_ZNSo5flushEv(%"class.std::basic_ostream"* nonnull align 8 dereferenceable(8) %92)
  br label %10

94:                                               ; preds = %12
  call void @llvm.lifetime.end.p0i8(i64 60, i8* nonnull %2) #7
  ret i32 0

95:                                               ; preds = %40
  %96 = getelementptr inbounds [15 x i32], [15 x i32]* %1, i64 0, i64 %42
  %97 = load i32, i32* %96, align 4, !tbaa !5
  %98 = load i32, i32* %26, align 4, !tbaa !5
  %99 = shl nsw i32 %98, 1
  %100 = icmp eq i32 %97, %99
  %101 = zext i1 %100 to i32
  %102 = add nsw i32 %41, %101
  br label %103

103:                                              ; preds = %95, %40
  %104 = phi i32 [ %41, %40 ], [ %102, %95 ]
  %105 = add nuw nsw i64 %28, 2
  %106 = add i64 %30, -2
  %107 = icmp eq i64 %106, 0
  br i1 %107, label %44, label %27, !llvm.loop !21
}

; Function Attrs: argmemonly mustprogress nofree nosync nounwind willreturn
declare void @llvm.lifetime.start.p0i8(i64 immarg, i8* nocapture) #4

declare nonnull align 8 dereferenceable(16) %"class.std::basic_istream"* @_ZNSirsERi(%"class.std::basic_istream"* nonnull align 8 dereferenceable(16), i32* nonnull align 4 dereferenceable(4)) local_unnamed_addr #0

declare nonnull align 8 dereferenceable(8) %"class.std::basic_ostream"* @_ZNSolsEi(%"class.std::basic_ostream"* nonnull align 8 dereferenceable(8), i32) local_unnamed_addr #0

; Function Attrs: argmemonly mustprogress nofree nosync nounwind willreturn
declare void @llvm.lifetime.end.p0i8(i64 immarg, i8* nocapture) #4

declare nonnull align 8 dereferenceable(8) %"class.std::basic_ostream"* @_ZNSo3putEc(%"class.std::basic_ostream"* nonnull align 8 dereferenceable(8), i8 signext) local_unnamed_addr #0

declare nonnull align 8 dereferenceable(8) %"class.std::basic_ostream"* @_ZNSo5flushEv(%"class.std::basic_ostream"* nonnull align 8 dereferenceable(8)) local_unnamed_addr #0

; Function Attrs: noreturn
declare void @_ZSt16__throw_bad_castv() local_unnamed_addr #5

declare void @_ZNKSt5ctypeIcE13_M_widen_initEv(%"class.std::ctype"* nonnull align 8 dereferenceable(570)) local_unnamed_addr #0

; Function Attrs: sspstrong uwtable
define internal void @_GLOBAL__sub_I_1205.cpp() #6 section ".text.startup" {
  tail call void @_ZNSt8ios_base4InitC1Ev(%"class.std::ios_base::Init"* nonnull align 1 dereferenceable(1) @_ZStL8__ioinit)
  %1 = tail call i32 @__cxa_atexit(void (i8*)* bitcast (void (%"class.std::ios_base::Init"*)* @_ZNSt8ios_base4InitD1Ev to void (i8*)*), i8* getelementptr inbounds (%"class.std::ios_base::Init", %"class.std::ios_base::Init"* @_ZStL8__ioinit, i64 0, i32 0), i8* nonnull @__dso_handle) #7
  ret void
}


!llvm.module.flags = !{!0, !1, !2, !3}
!llvm.ident = !{!4}

!0 = !{i32 1, !"wchar_size", i32 4}
!1 = !{i32 7, !"PIC Level", i32 2}
!2 = !{i32 7, !"PIE Level", i32 2}
!3 = !{i32 7, !"uwtable", i32 1}
!4 = !{!"clang version 13.0.0"}
!5 = !{!6, !6, i64 0}
!6 = !{!"int", !7, i64 0}
!7 = !{!"omnipotent char", !8, i64 0}
!8 = !{!"Simple C++ TBAA"}
!9 = distinct !{!9, !10}
!10 = !{!"llvm.loop.mustprogress"}
!11 = distinct !{!11, !10}
!12 = !{!13, !13, i64 0}
!13 = !{!"vtable pointer", !8, i64 0}
!14 = !{!15, !16, i64 240}
!15 = !{!"_ZTSSt9basic_iosIcSt11char_traitsIcEE", !16, i64 216, !7, i64 224, !17, i64 225, !16, i64 232, !16, i64 240, !16, i64 248, !16, i64 256}
!16 = !{!"any pointer", !7, i64 0}
!17 = !{!"bool", !7, i64 0}
!18 = !{!19, !7, i64 56}
!19 = !{!"_ZTSSt5ctypeIcE", !16, i64 16, !17, i64 24, !16, i64 32, !16, i64 40, !16, i64 48, !7, i64 56, !7, i64 57, !7, i64 313, !7, i64 569}
!20 = !{!7, !7, i64 0}
!21 = distinct !{!21, !10}
